target datalayout = "e-m:e-p270:32:32-p271:32:32-p272:64:64-i64:64-i128:128-f80:128-n8:16:32:64-S128"
target triple = "x86_64-pc-linux-gnu"

%struct.index_state = type { ptr, i32, i32, i32, i32, ptr, ptr, ptr, %struct.cache_time, i8, i32, %struct.hashmap, %struct.hashmap, %struct.object_id, ptr, ptr, ptr, ptr, ptr, ptr, ptr }
%struct.cache_time = type { i32, i32 }
%struct.hashmap = type { ptr, ptr, ptr, i32, i32, i32, i32, i8 }
%struct.object_id = type { [32 x i8], i32 }
%struct.split_index = type { %struct.object_id, ptr, ptr, ptr, ptr, i32, i32, i32, i32 }

@.str.18 = private unnamed_addr constant [13 x i8] c"read-cache.c\00", align 1
@.str.39 = private unnamed_addr constant [55 x i8] c"cache entry is not allocated from expected memory pool\00", align 1
@should_validate_cache_entries.validate_index_cache_entries = internal global i32 -1, align 4
@.str.45 = private unnamed_addr constant [38 x i8] c"GIT_TEST_VALIDATE_INDEX_CACHE_ENTRIES\00", align 1

; Function Attrs: nounwind uwtable
define dso_local i32 @should_validate_cache_entries() #0 {
  %1 = load i32, ptr @should_validate_cache_entries.validate_index_cache_entries, align 4, !tbaa !9
  %2 = icmp slt i32 %1, 0
  br i1 %2, label %3, label %9

3:                                                ; preds = %0
  %4 = call ptr @getenv(ptr noundef @.str.45) #12
  %5 = icmp ne ptr %4, null
  br i1 %5, label %6, label %7

6:                                                ; preds = %3
  store i32 1, ptr @should_validate_cache_entries.validate_index_cache_entries, align 4, !tbaa !9
  br label %8

7:                                                ; preds = %3
  store i32 0, ptr @should_validate_cache_entries.validate_index_cache_entries, align 4, !tbaa !9
  br label %8

8:                                                ; preds = %7, %6
  br label %9

9:                                                ; preds = %8, %0
  %10 = load i32, ptr @should_validate_cache_entries.validate_index_cache_entries, align 4, !tbaa !9
  ret i32 %10
}

; Function Attrs: nounwind uwtable
define dso_local void @validate_cache_entries(ptr noundef %0) #0 {
  %2 = alloca ptr, align 8
  %3 = alloca i32, align 4
  %4 = alloca i32, align 4
  store ptr %0, ptr %2, align 8, !tbaa !4
  call void @llvm.lifetime.start.p0(i64 4, ptr %3) #12
  %5 = call i32 @should_validate_cache_entries()
  %6 = icmp ne i32 %5, 0
  br i1 %6, label %7, label %18

7:                                                ; preds = %1
  %8 = load ptr, ptr %2, align 8, !tbaa !4
  %9 = icmp ne ptr %8, null
  br i1 %9, label %10, label %18

10:                                               ; preds = %7
  %11 = load ptr, ptr %2, align 8, !tbaa !4
  %12 = getelementptr inbounds nuw %struct.index_state, ptr %11, i32 0, i32 9
  %13 = load i8, ptr %12, align 8
  %14 = lshr i8 %13, 1
  %15 = and i8 %14, 1
  %16 = zext i8 %15 to i32
  %17 = icmp ne i32 %16, 0
  br i1 %17, label %19, label %18

18:                                               ; preds = %10, %7, %1
  store i32 1, ptr %4, align 4
  br label %105

19:                                               ; preds = %10
  store i32 0, ptr %3, align 4, !tbaa !9
  br label %20

20:                                               ; preds = %90, %19
  %21 = load i32, ptr %3, align 4, !tbaa !9
  %22 = load ptr, ptr %2, align 8, !tbaa !4
  %23 = getelementptr inbounds nuw %struct.index_state, ptr %22, i32 0, i32 2
  %24 = load i32, ptr %23, align 4, !tbaa !34
  %25 = icmp ult i32 %21, %24
  br i1 %25, label %26, label %93

26:                                               ; preds = %20
  %27 = load ptr, ptr %2, align 8, !tbaa !4
  %28 = icmp ne ptr %27, null
  br i1 %28, label %30, label %29

29:                                               ; preds = %26
  call void (ptr, i32, ptr, ...) @BUG_fl(ptr noundef @.str.18, i32 noundef 2503, ptr noundef @.str.39) #14
  unreachable

30:                                               ; preds = %26
  %31 = load ptr, ptr %2, align 8, !tbaa !4
  %32 = getelementptr inbounds nuw %struct.index_state, ptr %31, i32 0, i32 17
  %33 = load ptr, ptr %32, align 8, !tbaa !141
  %34 = icmp ne ptr %33, null
  br i1 %34, label %35, label %48

35:                                               ; preds = %30
  %36 = load ptr, ptr %2, align 8, !tbaa !4
  %37 = getelementptr inbounds nuw %struct.index_state, ptr %36, i32 0, i32 17
  %38 = load ptr, ptr %37, align 8, !tbaa !141
  %39 = load ptr, ptr %2, align 8, !tbaa !4
  %40 = getelementptr inbounds nuw %struct.index_state, ptr %39, i32 0, i32 0
  %41 = load ptr, ptr %40, align 8, !tbaa !13
  %42 = load i32, ptr %3, align 4, !tbaa !9
  %43 = sext i32 %42 to i64
  %44 = getelementptr inbounds ptr, ptr %41, i64 %43
  %45 = load ptr, ptr %44, align 8, !tbaa !29
  %46 = call i32 @mem_pool_contains(ptr noundef %38, ptr noundef %45)
  %47 = icmp ne i32 %46, 0
  br i1 %47, label %88, label %48

48:                                               ; preds = %35, %30
  %49 = load ptr, ptr %2, align 8, !tbaa !4
  %50 = getelementptr inbounds nuw %struct.index_state, ptr %49, i32 0, i32 7
  %51 = load ptr, ptr %50, align 8, !tbaa !77
  %52 = icmp ne ptr %51, null
  br i1 %52, label %53, label %86

53:                                               ; preds = %48
  %54 = load ptr, ptr %2, align 8, !tbaa !4
  %55 = getelementptr inbounds nuw %struct.index_state, ptr %54, i32 0, i32 7
  %56 = load ptr, ptr %55, align 8, !tbaa !77
  %57 = getelementptr inbounds nuw %struct.split_index, ptr %56, i32 0, i32 1
  %58 = load ptr, ptr %57, align 8, !tbaa !78
  %59 = icmp ne ptr %58, null
  br i1 %59, label %60, label %86

60:                                               ; preds = %53
  %61 = load ptr, ptr %2, align 8, !tbaa !4
  %62 = getelementptr inbounds nuw %struct.index_state, ptr %61, i32 0, i32 7
  %63 = load ptr, ptr %62, align 8, !tbaa !77
  %64 = getelementptr inbounds nuw %struct.split_index, ptr %63, i32 0, i32 1
  %65 = load ptr, ptr %64, align 8, !tbaa !78
  %66 = getelementptr inbounds nuw %struct.index_state, ptr %65, i32 0, i32 17
  %67 = load ptr, ptr %66, align 8, !tbaa !141
  %68 = icmp ne ptr %67, null
  br i1 %68, label %69, label %86

69:                                               ; preds = %60
  %70 = load ptr, ptr %2, align 8, !tbaa !4
  %71 = getelementptr inbounds nuw %struct.index_state, ptr %70, i32 0, i32 7
  %72 = load ptr, ptr %71, align 8, !tbaa !77
  %73 = getelementptr inbounds nuw %struct.split_index, ptr %72, i32 0, i32 1
  %74 = load ptr, ptr %73, align 8, !tbaa !78
  %75 = getelementptr inbounds nuw %struct.index_state, ptr %74, i32 0, i32 17
  %76 = load ptr, ptr %75, align 8, !tbaa !141
  %77 = load ptr, ptr %2, align 8, !tbaa !4
  %78 = getelementptr inbounds nuw %struct.index_state, ptr %77, i32 0, i32 0
  %79 = load ptr, ptr %78, align 8, !tbaa !13
  %80 = load i32, ptr %3, align 4, !tbaa !9
  %81 = sext i32 %80 to i64
  %82 = getelementptr inbounds ptr, ptr %79, i64 %81
  %83 = load ptr, ptr %82, align 8, !tbaa !29
  %84 = call i32 @mem_pool_contains(ptr noundef %76, ptr noundef %83)
  %85 = icmp ne i32 %84, 0
  br i1 %85, label %87, label %86

86:                                               ; preds = %69, %60, %53, %48
  call void (ptr, i32, ptr, ...) @BUG_fl(ptr noundef @.str.18, i32 noundef 2510, ptr noundef @.str.39) #14
  unreachable

87:                                               ; preds = %69
  br label %88

88:                                               ; preds = %87, %35
  br label %89

89:                                               ; preds = %88
  br label %90

90:                                               ; preds = %89
  %91 = load i32, ptr %3, align 4, !tbaa !9
  %92 = add nsw i32 %91, 1
  store i32 %92, ptr %3, align 4, !tbaa !9
  br label %20, !llvm.loop !160

93:                                               ; preds = %20
  %94 = load ptr, ptr %2, align 8, !tbaa !4
  %95 = getelementptr inbounds nuw %struct.index_state, ptr %94, i32 0, i32 7
  %96 = load ptr, ptr %95, align 8, !tbaa !77
  %97 = icmp ne ptr %96, null
  br i1 %97, label %98, label %104

98:                                               ; preds = %93
  %99 = load ptr, ptr %2, align 8, !tbaa !4
  %100 = getelementptr inbounds nuw %struct.index_state, ptr %99, i32 0, i32 7
  %101 = load ptr, ptr %100, align 8, !tbaa !77
  %102 = getelementptr inbounds nuw %struct.split_index, ptr %101, i32 0, i32 1
  %103 = load ptr, ptr %102, align 8, !tbaa !78
  call void @validate_cache_entries(ptr noundef %103)
  br label %104

104:                                              ; preds = %98, %93
  store i32 0, ptr %4, align 4
  br label %105

105:                                              ; preds = %104, %18
  call void @llvm.lifetime.end.p0(i64 4, ptr %3) #12
  %106 = load i32, ptr %4, align 4
  switch i32 %106, label %108 [
    i32 0, label %107
    i32 1, label %107
  ]

107:                                              ; preds = %105, %105
  ret void

108:                                              ; preds = %105
  unreachable
}