; Function Attrs: nounwind uwtable
define dso_local void @validate_cache_entries(ptr noundef readonly %0) local_unnamed_addr #0 {
  br label %tailrecurse

tailrecurse:                                      ; preds = %43, %1
  %.tr = phi ptr [ %0, %1 ], [ %45, %43 ]
  %2 = load i32, ptr @should_validate_cache_entries.validate_index_cache_entries, align 4, !tbaa !32
  %3 = icmp slt i32 %2, 0
  br i1 %3, label %.sink.split.i, label %should_validate_cache_entries.exit

.sink.split.i:                                    ; preds = %tailrecurse
  %4 = tail call ptr @getenv(ptr noundef nonnull @.str.45) #30
  %.not.i = icmp ne ptr %4, null
  %..i = zext i1 %.not.i to i32
  store i32 %..i, ptr @should_validate_cache_entries.validate_index_cache_entries, align 4, !tbaa !32
  br label %should_validate_cache_entries.exit

should_validate_cache_entries.exit:               ; preds = %tailrecurse, %.sink.split.i
  %5 = phi i32 [ %2, %tailrecurse ], [ %..i, %.sink.split.i ]
  %6 = icmp ne i32 %5, 0
  %7 = icmp ne ptr %.tr, null
  %or.cond = and i1 %7, %6
  br i1 %or.cond, label %8, label %46

8:                                                ; preds = %should_validate_cache_entries.exit
  %9 = getelementptr inbounds nuw i8, ptr %.tr, i64 56
  %10 = load i8, ptr %9, align 8
  %11 = and i8 %10, 2
  %.not = icmp eq i8 %11, 0
  br i1 %.not, label %46, label %.preheader

.preheader:                                       ; preds = %8
  %12 = getelementptr inbounds nuw i8, ptr %.tr, i64 12
  %13 = load i32, ptr %12, align 4, !tbaa !34
  %.not32 = icmp eq i32 %13, 0
  br i1 %.not32, label %._crit_edge, label %.lr.ph

.lr.ph:                                           ; preds = %.preheader
  %14 = getelementptr inbounds nuw i8, ptr %.tr, i64 224
  %15 = getelementptr inbounds nuw i8, ptr %.tr, i64 40
  br label %16

16:                                               ; preds = %.lr.ph, %37
  %indvars.iv = phi i64 [ 0, %.lr.ph ], [ %indvars.iv.next, %37 ]
  %17 = load ptr, ptr %14, align 8, !tbaa !116
  %.not25 = icmp eq ptr %17, null
  br i1 %.not25, label %23, label %18

18:                                               ; preds = %16
  %19 = load ptr, ptr %.tr, align 8, !tbaa !4
  %20 = getelementptr inbounds nuw ptr, ptr %19, i64 %indvars.iv
  %21 = load ptr, ptr %20, align 8, !tbaa !25
  %22 = tail call i32 @mem_pool_contains(ptr noundef nonnull %17, ptr noundef %21) #30
  %.not26 = icmp eq i32 %22, 0
  br i1 %.not26, label %23, label %37

23:                                               ; preds = %18, %16
  %24 = load ptr, ptr %15, align 8, !tbaa !27
  %.not27 = icmp eq ptr %24, null
  br i1 %.not27, label %36, label %25

25:                                               ; preds = %23
  %26 = getelementptr inbounds nuw i8, ptr %24, i64 40
  %27 = load ptr, ptr %26, align 8, !tbaa !28
  %.not28 = icmp eq ptr %27, null
  br i1 %.not28, label %36, label %28

28:                                               ; preds = %25
  %29 = getelementptr inbounds nuw i8, ptr %27, i64 224
  %30 = load ptr, ptr %29, align 8, !tbaa !116
  %.not29 = icmp eq ptr %30, null
  br i1 %.not29, label %36, label %31

31:                                               ; preds = %28
  %32 = load ptr, ptr %.tr, align 8, !tbaa !4
  %33 = getelementptr inbounds nuw ptr, ptr %32, i64 %indvars.iv
  %34 = load ptr, ptr %33, align 8, !tbaa !25
  %35 = tail call i32 @mem_pool_contains(ptr noundef nonnull %30, ptr noundef %34) #30
  %.not30 = icmp eq i32 %35, 0
  br i1 %.not30, label %36, label %37

36:                                               ; preds = %31, %28, %25, %23
  tail call void (ptr, i32, ptr, ...) @BUG_fl(ptr noundef nonnull @.str.18, i32 noundef 2510, ptr noundef nonnull @.str.39) #31
  unreachable

37:                                               ; preds = %31, %18
  %indvars.iv.next = add nuw nsw i64 %indvars.iv, 1
  %38 = load i32, ptr %12, align 4, !tbaa !34
  %39 = zext i32 %38 to i64
  %40 = icmp samesign ult i64 %indvars.iv.next, %39
  br i1 %40, label %16, label %._crit_edge, !llvm.loop !142

._crit_edge:                                      ; preds = %37, %.preheader
  %41 = getelementptr inbounds nuw i8, ptr %.tr, i64 40
  %42 = load ptr, ptr %41, align 8, !tbaa !27
  %.not24 = icmp eq ptr %42, null
  br i1 %.not24, label %46, label %43

43:                                               ; preds = %._crit_edge
  %44 = getelementptr inbounds nuw i8, ptr %42, i64 40
  %45 = load ptr, ptr %44, align 8, !tbaa !28
  br label %tailrecurse

46:                                               ; preds = %._crit_edge, %should_validate_cache_entries.exit, %8
  ret void
}